; Function Attrs: nounwind uwtable
define i32 @wolfSSL_CTX_load_verify_buffer(ptr noundef %0, ptr noundef %1, i64 noundef %2, i32 noundef %3) local_unnamed_addr #0 {
  %5 = alloca i64, align 8
  %.not.i = icmp eq ptr %0, null
  br i1 %.not.i, label %12, label %6

6:                                                ; preds = %4
  %7 = getelementptr inbounds nuw i8, ptr %0, i64 169
  %8 = load i16, ptr %7, align 1
  %9 = and i16 %8, 2
  %10 = icmp eq i16 %9, 0
  %11 = zext i1 %10 to i32
  br label %12

12:                                               ; preds = %6, %4
  %not..i = phi i32 [ 1, %4 ], [ %11, %6 ]
  %13 = icmp eq i32 %3, 1
  br i1 %13, label %14, label %31

14:                                               ; preds = %12
  %15 = icmp sgt i64 %2, 0
  br i1 %15, label %.lr.ph.i.i, label %wolfSSL_CTX_load_verify_buffer_ex.exit

.lr.ph.i.i:                                       ; preds = %14, %26
  %.027.i.i = phi i32 [ %.1.i.i, %26 ], [ 0, %14 ]
  %.01726.i.i = phi i64 [ %.pre-phi.i, %26 ], [ 0, %14 ]
  call void @llvm.lifetime.start.p0(i64 8, ptr nonnull %5) #22
  store i64 0, ptr %5, align 8, !tbaa !27
  %16 = getelementptr inbounds i8, ptr %1, i64 %.01726.i.i
  %17 = sub nsw i64 %2, %.01726.i.i
  %18 = call i32 @ProcessBuffer(ptr noundef %0, ptr noundef %16, i64 noundef %17, i32 noundef 1, i32 noundef 6, ptr noundef null, ptr noundef nonnull %5, i32 noundef 0, i32 noundef %not..i)
  %19 = icmp eq i32 %18, -125
  br i1 %19, label %._crit_edge.loopexit.thread.i.i, label %20

._crit_edge.loopexit.thread.i.i:                  ; preds = %.lr.ph.i.i
  call void @llvm.lifetime.end.p0(i64 8, ptr nonnull %5) #22
  br label %wolfSSL_CTX_load_verify_buffer_ex.exit

20:                                               ; preds = %.lr.ph.i.i
  %21 = icmp slt i32 %18, 0
  %.pre29.i.i = load i64, ptr %5, align 8, !tbaa !27
  br i1 %21, label %22, label %._crit_edge.i

._crit_edge.i:                                    ; preds = %20
  %.pre.i = add nsw i64 %.pre29.i.i, %.01726.i.i
  br label %26

22:                                               ; preds = %20
  %23 = icmp sgt i64 %.pre29.i.i, 0
  %24 = add nsw i64 %.pre29.i.i, %.01726.i.i
  %25 = icmp slt i64 %24, %2
  %or.cond.i.i = select i1 %23, i1 %25, i1 false
  %spec.select25.i.i = select i1 %or.cond.i.i, i32 0, i32 %18
  br label %26

26:                                               ; preds = %22, %._crit_edge.i
  %.pre-phi.i = phi i64 [ %.pre.i, %._crit_edge.i ], [ %24, %22 ]
  %.119.i.i = phi i32 [ %18, %._crit_edge.i ], [ %spec.select25.i.i, %22 ]
  %.1.i.i = phi i32 [ 1, %._crit_edge.i ], [ %.027.i.i, %22 ]
  call void @llvm.lifetime.end.p0(i64 8, ptr nonnull %5) #22
  %27 = icmp sgt i32 %.119.i.i, -1
  %28 = icmp slt i64 %.pre-phi.i, %2
  %29 = select i1 %27, i1 %28, i1 false
  br i1 %29, label %.lr.ph.i.i, label %._crit_edge.loopexit.i.i, !llvm.loop !28

._crit_edge.loopexit.i.i:                         ; preds = %26
  %30 = icmp eq i32 %.1.i.i, 0
  %spec.select.i.i = select i1 %30, i32 %.119.i.i, i32 1
  br label %wolfSSL_CTX_load_verify_buffer_ex.exit

31:                                               ; preds = %12
  %32 = tail call i32 @ProcessBuffer(ptr noundef %0, ptr noundef %1, i64 noundef %2, i32 noundef %3, i32 noundef 6, ptr noundef null, ptr noundef null, i32 noundef 0, i32 noundef %not..i)
  br label %wolfSSL_CTX_load_verify_buffer_ex.exit

wolfSSL_CTX_load_verify_buffer_ex.exit:           ; preds = %14, %._crit_edge.loopexit.thread.i.i, %._crit_edge.loopexit.i.i, %31
  %.0.i = phi i32 [ %32, %31 ], [ 0, %14 ], [ -125, %._crit_edge.loopexit.thread.i.i ], [ %spec.select.i.i, %._crit_edge.loopexit.i.i ]
  ret i32 %.0.i
}